; Function Attrs: mustprogress nofree nounwind willreturn memory(argmem: read) uwtable
define dso_local zeroext i1 @brin_tuples_equal(ptr noundef readonly captures(none) %0, i64 noundef %1, ptr noundef readonly captures(none) %2, i64 noundef %3) local_unnamed_addr #4 {
  %.not = icmp eq i64 %1, %3
  br i1 %.not, label %5, label %6

5:                                                ; preds = %4
  %bcmp = tail call i32 @bcmp(ptr %0, ptr %2, i64 %1)
  %.not6 = icmp eq i32 %bcmp, 0
  br label %6

6:                                                ; preds = %5, %4
  %.0 = phi i1 [ false, %4 ], [ %.not6, %5 ]
  ret i1 %.0
}